; Function Attrs: nounwind uwtable
define range(i32 -1, 1) i32 @H5LTread_dataset_double(i64 noundef %0, ptr noundef %1, ptr noundef %2) local_unnamed_addr #0 {
  %4 = load i8, ptr @H5_libinit_g, align 1, !tbaa !10, !range !12, !noundef !13
  %5 = trunc nuw i8 %4 to i1
  %6 = load i8, ptr @H5_libterm_g, align 1, !range !12
  %7 = trunc nuw i8 %6 to i1
  %8 = select i1 %5, i1 true, i1 %7
  br i1 %8, label %11, label %9, !prof !14

9:                                                ; preds = %3
  %10 = tail call i32 @H5open() #20
  br label %11

11:                                               ; preds = %3, %9
  %12 = load i64, ptr @H5T_NATIVE_DOUBLE_g, align 8, !tbaa !15
  %13 = icmp eq ptr %1, null
  br i1 %13, label %H5LT_read_dataset_numerical.exit, label %14

14:                                               ; preds = %11
  %15 = tail call i64 @H5Dopen2(i64 noundef %0, ptr noundef nonnull %1, i64 noundef 0) #20
  %16 = icmp slt i64 %15, 0
  br i1 %16, label %H5LT_read_dataset_numerical.exit, label %17

17:                                               ; preds = %14
  %18 = tail call i32 @H5Dread(i64 noundef %15, i64 noundef %12, i64 noundef 0, i64 noundef 0, i64 noundef 0, ptr noundef %2) #20
  %19 = icmp slt i32 %18, 0
  %20 = tail call i32 @H5Dclose(i64 noundef %15) #20
  br i1 %19, label %H5LT_read_dataset_numerical.exit, label %21

21:                                               ; preds = %17
  %.not.i = icmp ne i32 %20, 0
  %..i = sext i1 %.not.i to i32
  br label %H5LT_read_dataset_numerical.exit

H5LT_read_dataset_numerical.exit:                 ; preds = %11, %14, %17, %21
  %.0.i = phi i32 [ -1, %11 ], [ -1, %14 ], [ %..i, %21 ], [ -1, %17 ]
  ret i32 %.0.i
}